ARM GAS  C:\Users\flynn\AppData\Local\Temp\ccdj4HfS.s 			page 1


   1              		.cpu cortex-m0plus
   2              		.arch armv6s-m
   3              		.fpu softvfp
   4              		.eabi_attribute 20, 1
   5              		.eabi_attribute 21, 1
   6              		.eabi_attribute 23, 3
   7              		.eabi_attribute 24, 1
   8              		.eabi_attribute 25, 1
   9              		.eabi_attribute 26, 1
  10              		.eabi_attribute 30, 1
  11              		.eabi_attribute 34, 0
  12              		.eabi_attribute 18, 4
  13              		.file	"syscalls.c"
  14              		.text
  15              	.Ltext0:
  16              		.cfi_sections	.debug_frame
  17              		.section	.text.initialise_monitor_handles,"ax",%progbits
  18              		.align	1
  19              		.global	initialise_monitor_handles
  20              		.syntax unified
  21              		.code	16
  22              		.thumb_func
  24              	initialise_monitor_handles:
  25              	.LFB25:
  26              		.file 1 "Core/Src/syscalls.c"
   1:Core/Src/syscalls.c **** /**
   2:Core/Src/syscalls.c ****  ******************************************************************************
   3:Core/Src/syscalls.c ****  * @file      syscalls.c
   4:Core/Src/syscalls.c ****  * @author    Auto-generated by STM32CubeIDE
   5:Core/Src/syscalls.c ****  * @brief     STM32CubeIDE Minimal System calls file
   6:Core/Src/syscalls.c ****  *
   7:Core/Src/syscalls.c ****  *            For more information about which c-functions
   8:Core/Src/syscalls.c ****  *            need which of these lowlevel functions
   9:Core/Src/syscalls.c ****  *            please consult the Newlib libc-manual
  10:Core/Src/syscalls.c ****  ******************************************************************************
  11:Core/Src/syscalls.c ****  * @attention
  12:Core/Src/syscalls.c ****  *
  13:Core/Src/syscalls.c ****  * <h2><center>&copy; Copyright (c) 2020 STMicroelectronics.
  14:Core/Src/syscalls.c ****  * All rights reserved.</center></h2>
  15:Core/Src/syscalls.c ****  *
  16:Core/Src/syscalls.c ****  * This software component is licensed by ST under BSD 3-Clause license,
  17:Core/Src/syscalls.c ****  * the "License"; You may not use this file except in compliance with the
  18:Core/Src/syscalls.c ****  * License. You may obtain a copy of the License at:
  19:Core/Src/syscalls.c ****  *                        opensource.org/licenses/BSD-3-Clause
  20:Core/Src/syscalls.c ****  *
  21:Core/Src/syscalls.c ****  ******************************************************************************
  22:Core/Src/syscalls.c ****  */
  23:Core/Src/syscalls.c **** 
  24:Core/Src/syscalls.c **** /* Includes */
  25:Core/Src/syscalls.c **** #include <sys/stat.h>
  26:Core/Src/syscalls.c **** #include <stdlib.h>
  27:Core/Src/syscalls.c **** #include <errno.h>
  28:Core/Src/syscalls.c **** #include <stdio.h>
  29:Core/Src/syscalls.c **** #include <signal.h>
  30:Core/Src/syscalls.c **** #include <time.h>
  31:Core/Src/syscalls.c **** #include <sys/time.h>
  32:Core/Src/syscalls.c **** #include <sys/times.h>
ARM GAS  C:\Users\flynn\AppData\Local\Temp\ccdj4HfS.s 			page 2


  33:Core/Src/syscalls.c **** 
  34:Core/Src/syscalls.c **** 
  35:Core/Src/syscalls.c **** /* Variables */
  36:Core/Src/syscalls.c **** //#undef errno
  37:Core/Src/syscalls.c **** extern int errno;
  38:Core/Src/syscalls.c **** extern int __io_putchar(int ch) __attribute__((weak));
  39:Core/Src/syscalls.c **** extern int __io_getchar(void) __attribute__((weak));
  40:Core/Src/syscalls.c **** 
  41:Core/Src/syscalls.c **** register char * stack_ptr asm("sp");
  42:Core/Src/syscalls.c **** 
  43:Core/Src/syscalls.c **** char *__env[1] = { 0 };
  44:Core/Src/syscalls.c **** char **environ = __env;
  45:Core/Src/syscalls.c **** 
  46:Core/Src/syscalls.c **** 
  47:Core/Src/syscalls.c **** /* Functions */
  48:Core/Src/syscalls.c **** void initialise_monitor_handles()
  49:Core/Src/syscalls.c **** {
  27              		.loc 1 49 1 view -0
  28              		.cfi_startproc
  29              		@ args = 0, pretend = 0, frame = 0
  30              		@ frame_needed = 0, uses_anonymous_args = 0
  31              		@ link register save eliminated.
  50:Core/Src/syscalls.c **** }
  32              		.loc 1 50 1 view .LVU1
  33              		@ sp needed
  34 0000 7047     		bx	lr
  35              		.cfi_endproc
  36              	.LFE25:
  38              		.section	.text._getpid,"ax",%progbits
  39              		.align	1
  40              		.global	_getpid
  41              		.syntax unified
  42              		.code	16
  43              		.thumb_func
  45              	_getpid:
  46              	.LFB26:
  51:Core/Src/syscalls.c **** 
  52:Core/Src/syscalls.c **** int _getpid(void)
  53:Core/Src/syscalls.c **** {
  47              		.loc 1 53 1 view -0
  48              		.cfi_startproc
  49              		@ args = 0, pretend = 0, frame = 0
  50              		@ frame_needed = 0, uses_anonymous_args = 0
  51              		@ link register save eliminated.
  54:Core/Src/syscalls.c **** 	return 1;
  52              		.loc 1 54 2 view .LVU3
  55:Core/Src/syscalls.c **** }
  53              		.loc 1 55 1 is_stmt 0 view .LVU4
  54 0000 0120     		movs	r0, #1
  55              		@ sp needed
  56 0002 7047     		bx	lr
  57              		.cfi_endproc
  58              	.LFE26:
  60              		.section	.text._kill,"ax",%progbits
  61              		.align	1
  62              		.global	_kill
  63              		.syntax unified
ARM GAS  C:\Users\flynn\AppData\Local\Temp\ccdj4HfS.s 			page 3


  64              		.code	16
  65              		.thumb_func
  67              	_kill:
  68              	.LVL0:
  69              	.LFB27:
  56:Core/Src/syscalls.c **** 
  57:Core/Src/syscalls.c **** int _kill(int pid, int sig)
  58:Core/Src/syscalls.c **** {
  70              		.loc 1 58 1 is_stmt 1 view -0
  71              		.cfi_startproc
  72              		@ args = 0, pretend = 0, frame = 0
  73              		@ frame_needed = 0, uses_anonymous_args = 0
  74              		.loc 1 58 1 is_stmt 0 view .LVU6
  75 0000 10B5     		push	{r4, lr}
  76              	.LCFI0:
  77              		.cfi_def_cfa_offset 8
  78              		.cfi_offset 4, -8
  79              		.cfi_offset 14, -4
  59:Core/Src/syscalls.c **** 	errno = EINVAL;
  80              		.loc 1 59 2 is_stmt 1 view .LVU7
  81 0002 FFF7FEFF 		bl	__errno
  82              	.LVL1:
  83              		.loc 1 59 8 is_stmt 0 view .LVU8
  84 0006 1623     		movs	r3, #22
  85 0008 0360     		str	r3, [r0]
  60:Core/Src/syscalls.c **** 	return -1;
  86              		.loc 1 60 2 is_stmt 1 view .LVU9
  87              		.loc 1 60 9 is_stmt 0 view .LVU10
  88 000a 0120     		movs	r0, #1
  61:Core/Src/syscalls.c **** }
  89              		.loc 1 61 1 view .LVU11
  90 000c 4042     		rsbs	r0, r0, #0
  91              		@ sp needed
  92 000e 10BD     		pop	{r4, pc}
  93              		.cfi_endproc
  94              	.LFE27:
  96              		.section	.text._exit,"ax",%progbits
  97              		.align	1
  98              		.global	_exit
  99              		.syntax unified
 100              		.code	16
 101              		.thumb_func
 103              	_exit:
 104              	.LVL2:
 105              	.LFB28:
  62:Core/Src/syscalls.c **** 
  63:Core/Src/syscalls.c **** void _exit (int status)
  64:Core/Src/syscalls.c **** {
 106              		.loc 1 64 1 is_stmt 1 view -0
 107              		.cfi_startproc
 108              		@ Volatile: function does not return.
 109              		@ args = 0, pretend = 0, frame = 0
 110              		@ frame_needed = 0, uses_anonymous_args = 0
 111              		.loc 1 64 1 is_stmt 0 view .LVU13
 112 0000 10B5     		push	{r4, lr}
 113              	.LCFI1:
 114              		.cfi_def_cfa_offset 8
ARM GAS  C:\Users\flynn\AppData\Local\Temp\ccdj4HfS.s 			page 4


 115              		.cfi_offset 4, -8
 116              		.cfi_offset 14, -4
  65:Core/Src/syscalls.c **** 	_kill(status, -1);
 117              		.loc 1 65 2 is_stmt 1 view .LVU14
 118 0002 0121     		movs	r1, #1
 119 0004 4942     		rsbs	r1, r1, #0
 120 0006 FFF7FEFF 		bl	_kill
 121              	.LVL3:
 122              	.L5:
  66:Core/Src/syscalls.c **** 	while (1) {}		/* Make sure we hang here */
 123              		.loc 1 66 2 discriminator 1 view .LVU15
 124              		.loc 1 66 13 discriminator 1 view .LVU16
 125              		.loc 1 66 8 discriminator 1 view .LVU17
 126 000a FEE7     		b	.L5
 127              		.cfi_endproc
 128              	.LFE28:
 130              		.section	.text._read,"ax",%progbits
 131              		.align	1
 132              		.weak	_read
 133              		.syntax unified
 134              		.code	16
 135              		.thumb_func
 137              	_read:
 138              	.LVL4:
 139              	.LFB29:
  67:Core/Src/syscalls.c **** }
  68:Core/Src/syscalls.c **** 
  69:Core/Src/syscalls.c **** __attribute__((weak)) int _read(int file, char *ptr, int len)
  70:Core/Src/syscalls.c **** {
 140              		.loc 1 70 1 view -0
 141              		.cfi_startproc
 142              		@ args = 0, pretend = 0, frame = 0
 143              		@ frame_needed = 0, uses_anonymous_args = 0
 144              		.loc 1 70 1 is_stmt 0 view .LVU19
 145 0000 70B5     		push	{r4, r5, r6, lr}
 146              	.LCFI2:
 147              		.cfi_def_cfa_offset 16
 148              		.cfi_offset 4, -16
 149              		.cfi_offset 5, -12
 150              		.cfi_offset 6, -8
 151              		.cfi_offset 14, -4
 152 0002 0C00     		movs	r4, r1
 153 0004 1600     		movs	r6, r2
  71:Core/Src/syscalls.c **** 	int DataIdx;
 154              		.loc 1 71 2 is_stmt 1 view .LVU20
  72:Core/Src/syscalls.c **** 
  73:Core/Src/syscalls.c **** 	for (DataIdx = 0; DataIdx < len; DataIdx++)
 155              		.loc 1 73 2 view .LVU21
 156              	.LVL5:
 157              		.loc 1 73 15 is_stmt 0 view .LVU22
 158 0006 0025     		movs	r5, #0
 159              		.loc 1 73 2 view .LVU23
 160 0008 04E0     		b	.L7
 161              	.LVL6:
 162              	.L8:
  74:Core/Src/syscalls.c **** 	{
  75:Core/Src/syscalls.c **** 		*ptr++ = __io_getchar();
ARM GAS  C:\Users\flynn\AppData\Local\Temp\ccdj4HfS.s 			page 5


 163              		.loc 1 75 3 is_stmt 1 discriminator 3 view .LVU24
 164              		.loc 1 75 12 is_stmt 0 discriminator 3 view .LVU25
 165 000a FFF7FEFF 		bl	__io_getchar
 166              	.LVL7:
 167              		.loc 1 75 10 discriminator 3 view .LVU26
 168 000e 2070     		strb	r0, [r4]
  73:Core/Src/syscalls.c **** 	{
 169              		.loc 1 73 35 is_stmt 1 discriminator 3 view .LVU27
  73:Core/Src/syscalls.c **** 	{
 170              		.loc 1 73 42 is_stmt 0 discriminator 3 view .LVU28
 171 0010 0135     		adds	r5, r5, #1
 172              	.LVL8:
 173              		.loc 1 75 7 discriminator 3 view .LVU29
 174 0012 0134     		adds	r4, r4, #1
 175              	.LVL9:
 176              	.L7:
  73:Core/Src/syscalls.c **** 	{
 177              		.loc 1 73 20 is_stmt 1 discriminator 1 view .LVU30
  73:Core/Src/syscalls.c **** 	{
 178              		.loc 1 73 2 is_stmt 0 discriminator 1 view .LVU31
 179 0014 B542     		cmp	r5, r6
 180 0016 F8DB     		blt	.L8
  76:Core/Src/syscalls.c **** 	}
  77:Core/Src/syscalls.c **** 
  78:Core/Src/syscalls.c **** return len;
 181              		.loc 1 78 1 is_stmt 1 view .LVU32
  79:Core/Src/syscalls.c **** }
 182              		.loc 1 79 1 is_stmt 0 view .LVU33
 183 0018 3000     		movs	r0, r6
 184              		@ sp needed
 185              	.LVL10:
 186              	.LVL11:
 187              	.LVL12:
 188              		.loc 1 79 1 view .LVU34
 189 001a 70BD     		pop	{r4, r5, r6, pc}
 190              		.cfi_endproc
 191              	.LFE29:
 193              		.section	.text._write,"ax",%progbits
 194              		.align	1
 195              		.weak	_write
 196              		.syntax unified
 197              		.code	16
 198              		.thumb_func
 200              	_write:
 201              	.LVL13:
 202              	.LFB30:
  80:Core/Src/syscalls.c **** 
  81:Core/Src/syscalls.c **** __attribute__((weak)) int _write(int file, char *ptr, int len)
  82:Core/Src/syscalls.c **** {
 203              		.loc 1 82 1 is_stmt 1 view -0
 204              		.cfi_startproc
 205              		@ args = 0, pretend = 0, frame = 0
 206              		@ frame_needed = 0, uses_anonymous_args = 0
 207              		.loc 1 82 1 is_stmt 0 view .LVU36
 208 0000 70B5     		push	{r4, r5, r6, lr}
 209              	.LCFI3:
 210              		.cfi_def_cfa_offset 16
ARM GAS  C:\Users\flynn\AppData\Local\Temp\ccdj4HfS.s 			page 6


 211              		.cfi_offset 4, -16
 212              		.cfi_offset 5, -12
 213              		.cfi_offset 6, -8
 214              		.cfi_offset 14, -4
 215 0002 1600     		movs	r6, r2
  83:Core/Src/syscalls.c **** 	int DataIdx;
 216              		.loc 1 83 2 is_stmt 1 view .LVU37
  84:Core/Src/syscalls.c **** 
  85:Core/Src/syscalls.c **** 	for (DataIdx = 0; DataIdx < len; DataIdx++)
 217              		.loc 1 85 2 view .LVU38
 218              	.LVL14:
 219              		.loc 1 85 15 is_stmt 0 view .LVU39
 220 0004 0024     		movs	r4, #0
 221              		.loc 1 85 2 view .LVU40
 222 0006 05E0     		b	.L10
 223              	.LVL15:
 224              	.L11:
  86:Core/Src/syscalls.c **** 	{
  87:Core/Src/syscalls.c **** 		__io_putchar(*ptr++);
 225              		.loc 1 87 3 is_stmt 1 discriminator 3 view .LVU41
 226              		.loc 1 87 20 is_stmt 0 discriminator 3 view .LVU42
 227 0008 4D1C     		adds	r5, r1, #1
 228              	.LVL16:
 229              		.loc 1 87 16 discriminator 3 view .LVU43
 230 000a 0878     		ldrb	r0, [r1]
 231              		.loc 1 87 3 discriminator 3 view .LVU44
 232 000c FFF7FEFF 		bl	__io_putchar
 233              	.LVL17:
  85:Core/Src/syscalls.c **** 	{
 234              		.loc 1 85 35 is_stmt 1 discriminator 3 view .LVU45
  85:Core/Src/syscalls.c **** 	{
 235              		.loc 1 85 42 is_stmt 0 discriminator 3 view .LVU46
 236 0010 0134     		adds	r4, r4, #1
 237              	.LVL18:
 238              		.loc 1 87 20 discriminator 3 view .LVU47
 239 0012 2900     		movs	r1, r5
 240              	.LVL19:
 241              	.L10:
  85:Core/Src/syscalls.c **** 	{
 242              		.loc 1 85 20 is_stmt 1 discriminator 1 view .LVU48
  85:Core/Src/syscalls.c **** 	{
 243              		.loc 1 85 2 is_stmt 0 discriminator 1 view .LVU49
 244 0014 B442     		cmp	r4, r6
 245 0016 F7DB     		blt	.L11
  88:Core/Src/syscalls.c **** 	}
  89:Core/Src/syscalls.c **** 	return len;
 246              		.loc 1 89 2 is_stmt 1 view .LVU50
  90:Core/Src/syscalls.c **** }
 247              		.loc 1 90 1 is_stmt 0 view .LVU51
 248 0018 3000     		movs	r0, r6
 249              		@ sp needed
 250              	.LVL20:
 251              	.LVL21:
 252              		.loc 1 90 1 view .LVU52
 253 001a 70BD     		pop	{r4, r5, r6, pc}
 254              		.cfi_endproc
 255              	.LFE30:
ARM GAS  C:\Users\flynn\AppData\Local\Temp\ccdj4HfS.s 			page 7


 257              		.section	.text._close,"ax",%progbits
 258              		.align	1
 259              		.global	_close
 260              		.syntax unified
 261              		.code	16
 262              		.thumb_func
 264              	_close:
 265              	.LVL22:
 266              	.LFB31:
  91:Core/Src/syscalls.c **** 
  92:Core/Src/syscalls.c **** int _close(int file)
  93:Core/Src/syscalls.c **** {
 267              		.loc 1 93 1 is_stmt 1 view -0
 268              		.cfi_startproc
 269              		@ args = 0, pretend = 0, frame = 0
 270              		@ frame_needed = 0, uses_anonymous_args = 0
 271              		@ link register save eliminated.
  94:Core/Src/syscalls.c **** 	return -1;
 272              		.loc 1 94 2 view .LVU54
 273              		.loc 1 94 9 is_stmt 0 view .LVU55
 274 0000 0120     		movs	r0, #1
 275              	.LVL23:
  95:Core/Src/syscalls.c **** }
 276              		.loc 1 95 1 view .LVU56
 277 0002 4042     		rsbs	r0, r0, #0
 278              		@ sp needed
 279 0004 7047     		bx	lr
 280              		.cfi_endproc
 281              	.LFE31:
 283              		.section	.text._fstat,"ax",%progbits
 284              		.align	1
 285              		.global	_fstat
 286              		.syntax unified
 287              		.code	16
 288              		.thumb_func
 290              	_fstat:
 291              	.LVL24:
 292              	.LFB32:
  96:Core/Src/syscalls.c **** 
  97:Core/Src/syscalls.c **** 
  98:Core/Src/syscalls.c **** int _fstat(int file, struct stat *st)
  99:Core/Src/syscalls.c **** {
 293              		.loc 1 99 1 is_stmt 1 view -0
 294              		.cfi_startproc
 295              		@ args = 0, pretend = 0, frame = 0
 296              		@ frame_needed = 0, uses_anonymous_args = 0
 297              		@ link register save eliminated.
 100:Core/Src/syscalls.c **** 	st->st_mode = S_IFCHR;
 298              		.loc 1 100 2 view .LVU58
 299              		.loc 1 100 14 is_stmt 0 view .LVU59
 300 0000 8023     		movs	r3, #128
 301 0002 9B01     		lsls	r3, r3, #6
 302 0004 4B60     		str	r3, [r1, #4]
 101:Core/Src/syscalls.c **** 	return 0;
 303              		.loc 1 101 2 is_stmt 1 view .LVU60
 102:Core/Src/syscalls.c **** }
 304              		.loc 1 102 1 is_stmt 0 view .LVU61
ARM GAS  C:\Users\flynn\AppData\Local\Temp\ccdj4HfS.s 			page 8


 305 0006 0020     		movs	r0, #0
 306              	.LVL25:
 307              		.loc 1 102 1 view .LVU62
 308              		@ sp needed
 309 0008 7047     		bx	lr
 310              		.cfi_endproc
 311              	.LFE32:
 313              		.section	.text._isatty,"ax",%progbits
 314              		.align	1
 315              		.global	_isatty
 316              		.syntax unified
 317              		.code	16
 318              		.thumb_func
 320              	_isatty:
 321              	.LVL26:
 322              	.LFB33:
 103:Core/Src/syscalls.c **** 
 104:Core/Src/syscalls.c **** int _isatty(int file)
 105:Core/Src/syscalls.c **** {
 323              		.loc 1 105 1 is_stmt 1 view -0
 324              		.cfi_startproc
 325              		@ args = 0, pretend = 0, frame = 0
 326              		@ frame_needed = 0, uses_anonymous_args = 0
 327              		@ link register save eliminated.
 106:Core/Src/syscalls.c **** 	return 1;
 328              		.loc 1 106 2 view .LVU64
 107:Core/Src/syscalls.c **** }
 329              		.loc 1 107 1 is_stmt 0 view .LVU65
 330 0000 0120     		movs	r0, #1
 331              	.LVL27:
 332              		.loc 1 107 1 view .LVU66
 333              		@ sp needed
 334 0002 7047     		bx	lr
 335              		.cfi_endproc
 336              	.LFE33:
 338              		.section	.text._lseek,"ax",%progbits
 339              		.align	1
 340              		.global	_lseek
 341              		.syntax unified
 342              		.code	16
 343              		.thumb_func
 345              	_lseek:
 346              	.LVL28:
 347              	.LFB34:
 108:Core/Src/syscalls.c **** 
 109:Core/Src/syscalls.c **** int _lseek(int file, int ptr, int dir)
 110:Core/Src/syscalls.c **** {
 348              		.loc 1 110 1 is_stmt 1 view -0
 349              		.cfi_startproc
 350              		@ args = 0, pretend = 0, frame = 0
 351              		@ frame_needed = 0, uses_anonymous_args = 0
 352              		@ link register save eliminated.
 111:Core/Src/syscalls.c **** 	return 0;
 353              		.loc 1 111 2 view .LVU68
 112:Core/Src/syscalls.c **** }
 354              		.loc 1 112 1 is_stmt 0 view .LVU69
 355 0000 0020     		movs	r0, #0
ARM GAS  C:\Users\flynn\AppData\Local\Temp\ccdj4HfS.s 			page 9


 356              	.LVL29:
 357              		.loc 1 112 1 view .LVU70
 358              		@ sp needed
 359 0002 7047     		bx	lr
 360              		.cfi_endproc
 361              	.LFE34:
 363              		.section	.text._open,"ax",%progbits
 364              		.align	1
 365              		.global	_open
 366              		.syntax unified
 367              		.code	16
 368              		.thumb_func
 370              	_open:
 371              	.LVL30:
 372              	.LFB35:
 113:Core/Src/syscalls.c **** 
 114:Core/Src/syscalls.c **** int _open(char *path, int flags, ...)
 115:Core/Src/syscalls.c **** {
 373              		.loc 1 115 1 is_stmt 1 view -0
 374              		.cfi_startproc
 375              		@ args = 4, pretend = 12, frame = 0
 376              		@ frame_needed = 0, uses_anonymous_args = 1
 377              		@ link register save eliminated.
 378              		.loc 1 115 1 is_stmt 0 view .LVU72
 379 0000 0EB4     		push	{r1, r2, r3}
 380              	.LCFI4:
 381              		.cfi_def_cfa_offset 12
 116:Core/Src/syscalls.c **** 	/* Pretend like we always fail */
 117:Core/Src/syscalls.c **** 	return -1;
 382              		.loc 1 117 2 is_stmt 1 view .LVU73
 383              		.loc 1 117 9 is_stmt 0 view .LVU74
 384 0002 0120     		movs	r0, #1
 385              	.LVL31:
 118:Core/Src/syscalls.c **** }
 386              		.loc 1 118 1 view .LVU75
 387 0004 4042     		rsbs	r0, r0, #0
 388              		@ sp needed
 389 0006 03B0     		add	sp, sp, #12
 390 0008 7047     		bx	lr
 391              		.cfi_endproc
 392              	.LFE35:
 394              		.section	.text._wait,"ax",%progbits
 395              		.align	1
 396              		.global	_wait
 397              		.syntax unified
 398              		.code	16
 399              		.thumb_func
 401              	_wait:
 402              	.LVL32:
 403              	.LFB36:
 119:Core/Src/syscalls.c **** 
 120:Core/Src/syscalls.c **** int _wait(int *status)
 121:Core/Src/syscalls.c **** {
 404              		.loc 1 121 1 is_stmt 1 view -0
 405              		.cfi_startproc
 406              		@ args = 0, pretend = 0, frame = 0
 407              		@ frame_needed = 0, uses_anonymous_args = 0
ARM GAS  C:\Users\flynn\AppData\Local\Temp\ccdj4HfS.s 			page 10


 408              		.loc 1 121 1 is_stmt 0 view .LVU77
 409 0000 10B5     		push	{r4, lr}
 410              	.LCFI5:
 411              		.cfi_def_cfa_offset 8
 412              		.cfi_offset 4, -8
 413              		.cfi_offset 14, -4
 122:Core/Src/syscalls.c **** 	errno = ECHILD;
 414              		.loc 1 122 2 is_stmt 1 view .LVU78
 415 0002 FFF7FEFF 		bl	__errno
 416              	.LVL33:
 417              		.loc 1 122 8 is_stmt 0 view .LVU79
 418 0006 0A23     		movs	r3, #10
 419 0008 0360     		str	r3, [r0]
 123:Core/Src/syscalls.c **** 	return -1;
 420              		.loc 1 123 2 is_stmt 1 view .LVU80
 421              		.loc 1 123 9 is_stmt 0 view .LVU81
 422 000a 0120     		movs	r0, #1
 124:Core/Src/syscalls.c **** }
 423              		.loc 1 124 1 view .LVU82
 424 000c 4042     		rsbs	r0, r0, #0
 425              		@ sp needed
 426 000e 10BD     		pop	{r4, pc}
 427              		.cfi_endproc
 428              	.LFE36:
 430              		.section	.text._unlink,"ax",%progbits
 431              		.align	1
 432              		.global	_unlink
 433              		.syntax unified
 434              		.code	16
 435              		.thumb_func
 437              	_unlink:
 438              	.LVL34:
 439              	.LFB37:
 125:Core/Src/syscalls.c **** 
 126:Core/Src/syscalls.c **** int _unlink(char *name)
 127:Core/Src/syscalls.c **** {
 440              		.loc 1 127 1 is_stmt 1 view -0
 441              		.cfi_startproc
 442              		@ args = 0, pretend = 0, frame = 0
 443              		@ frame_needed = 0, uses_anonymous_args = 0
 444              		.loc 1 127 1 is_stmt 0 view .LVU84
 445 0000 10B5     		push	{r4, lr}
 446              	.LCFI6:
 447              		.cfi_def_cfa_offset 8
 448              		.cfi_offset 4, -8
 449              		.cfi_offset 14, -4
 128:Core/Src/syscalls.c **** 	errno = ENOENT;
 450              		.loc 1 128 2 is_stmt 1 view .LVU85
 451 0002 FFF7FEFF 		bl	__errno
 452              	.LVL35:
 453              		.loc 1 128 8 is_stmt 0 view .LVU86
 454 0006 0223     		movs	r3, #2
 455 0008 0360     		str	r3, [r0]
 129:Core/Src/syscalls.c **** 	return -1;
 456              		.loc 1 129 2 is_stmt 1 view .LVU87
 457              		.loc 1 129 9 is_stmt 0 view .LVU88
 458 000a 0120     		movs	r0, #1
ARM GAS  C:\Users\flynn\AppData\Local\Temp\ccdj4HfS.s 			page 11


 130:Core/Src/syscalls.c **** }
 459              		.loc 1 130 1 view .LVU89
 460 000c 4042     		rsbs	r0, r0, #0
 461              		@ sp needed
 462 000e 10BD     		pop	{r4, pc}
 463              		.cfi_endproc
 464              	.LFE37:
 466              		.section	.text._times,"ax",%progbits
 467              		.align	1
 468              		.global	_times
 469              		.syntax unified
 470              		.code	16
 471              		.thumb_func
 473              	_times:
 474              	.LVL36:
 475              	.LFB38:
 131:Core/Src/syscalls.c **** 
 132:Core/Src/syscalls.c **** int _times(struct tms *buf)
 133:Core/Src/syscalls.c **** {
 476              		.loc 1 133 1 is_stmt 1 view -0
 477              		.cfi_startproc
 478              		@ args = 0, pretend = 0, frame = 0
 479              		@ frame_needed = 0, uses_anonymous_args = 0
 480              		@ link register save eliminated.
 134:Core/Src/syscalls.c **** 	return -1;
 481              		.loc 1 134 2 view .LVU91
 482              		.loc 1 134 9 is_stmt 0 view .LVU92
 483 0000 0120     		movs	r0, #1
 484              	.LVL37:
 135:Core/Src/syscalls.c **** }
 485              		.loc 1 135 1 view .LVU93
 486 0002 4042     		rsbs	r0, r0, #0
 487              		@ sp needed
 488 0004 7047     		bx	lr
 489              		.cfi_endproc
 490              	.LFE38:
 492              		.section	.text._stat,"ax",%progbits
 493              		.align	1
 494              		.global	_stat
 495              		.syntax unified
 496              		.code	16
 497              		.thumb_func
 499              	_stat:
 500              	.LVL38:
 501              	.LFB39:
 136:Core/Src/syscalls.c **** 
 137:Core/Src/syscalls.c **** int _stat(char *file, struct stat *st)
 138:Core/Src/syscalls.c **** {
 502              		.loc 1 138 1 is_stmt 1 view -0
 503              		.cfi_startproc
 504              		@ args = 0, pretend = 0, frame = 0
 505              		@ frame_needed = 0, uses_anonymous_args = 0
 506              		@ link register save eliminated.
 139:Core/Src/syscalls.c **** 	st->st_mode = S_IFCHR;
 507              		.loc 1 139 2 view .LVU95
 508              		.loc 1 139 14 is_stmt 0 view .LVU96
 509 0000 8023     		movs	r3, #128
ARM GAS  C:\Users\flynn\AppData\Local\Temp\ccdj4HfS.s 			page 12


 510 0002 9B01     		lsls	r3, r3, #6
 511 0004 4B60     		str	r3, [r1, #4]
 140:Core/Src/syscalls.c **** 	return 0;
 512              		.loc 1 140 2 is_stmt 1 view .LVU97
 141:Core/Src/syscalls.c **** }
 513              		.loc 1 141 1 is_stmt 0 view .LVU98
 514 0006 0020     		movs	r0, #0
 515              	.LVL39:
 516              		.loc 1 141 1 view .LVU99
 517              		@ sp needed
 518 0008 7047     		bx	lr
 519              		.cfi_endproc
 520              	.LFE39:
 522              		.section	.text._link,"ax",%progbits
 523              		.align	1
 524              		.global	_link
 525              		.syntax unified
 526              		.code	16
 527              		.thumb_func
 529              	_link:
 530              	.LVL40:
 531              	.LFB40:
 142:Core/Src/syscalls.c **** 
 143:Core/Src/syscalls.c **** int _link(char *old, char *new)
 144:Core/Src/syscalls.c **** {
 532              		.loc 1 144 1 is_stmt 1 view -0
 533              		.cfi_startproc
 534              		@ args = 0, pretend = 0, frame = 0
 535              		@ frame_needed = 0, uses_anonymous_args = 0
 536              		.loc 1 144 1 is_stmt 0 view .LVU101
 537 0000 10B5     		push	{r4, lr}
 538              	.LCFI7:
 539              		.cfi_def_cfa_offset 8
 540              		.cfi_offset 4, -8
 541              		.cfi_offset 14, -4
 145:Core/Src/syscalls.c **** 	errno = EMLINK;
 542              		.loc 1 145 2 is_stmt 1 view .LVU102
 543 0002 FFF7FEFF 		bl	__errno
 544              	.LVL41:
 545              		.loc 1 145 8 is_stmt 0 view .LVU103
 546 0006 1F23     		movs	r3, #31
 547 0008 0360     		str	r3, [r0]
 146:Core/Src/syscalls.c **** 	return -1;
 548              		.loc 1 146 2 is_stmt 1 view .LVU104
 549              		.loc 1 146 9 is_stmt 0 view .LVU105
 550 000a 0120     		movs	r0, #1
 147:Core/Src/syscalls.c **** }
 551              		.loc 1 147 1 view .LVU106
 552 000c 4042     		rsbs	r0, r0, #0
 553              		@ sp needed
 554 000e 10BD     		pop	{r4, pc}
 555              		.cfi_endproc
 556              	.LFE40:
 558              		.section	.text._fork,"ax",%progbits
 559              		.align	1
 560              		.global	_fork
 561              		.syntax unified
ARM GAS  C:\Users\flynn\AppData\Local\Temp\ccdj4HfS.s 			page 13


 562              		.code	16
 563              		.thumb_func
 565              	_fork:
 566              	.LFB41:
 148:Core/Src/syscalls.c **** 
 149:Core/Src/syscalls.c **** int _fork(void)
 150:Core/Src/syscalls.c **** {
 567              		.loc 1 150 1 is_stmt 1 view -0
 568              		.cfi_startproc
 569              		@ args = 0, pretend = 0, frame = 0
 570              		@ frame_needed = 0, uses_anonymous_args = 0
 571 0000 10B5     		push	{r4, lr}
 572              	.LCFI8:
 573              		.cfi_def_cfa_offset 8
 574              		.cfi_offset 4, -8
 575              		.cfi_offset 14, -4
 151:Core/Src/syscalls.c **** 	errno = EAGAIN;
 576              		.loc 1 151 2 view .LVU108
 577 0002 FFF7FEFF 		bl	__errno
 578              	.LVL42:
 579              		.loc 1 151 8 is_stmt 0 view .LVU109
 580 0006 0B23     		movs	r3, #11
 581 0008 0360     		str	r3, [r0]
 152:Core/Src/syscalls.c **** 	return -1;
 582              		.loc 1 152 2 is_stmt 1 view .LVU110
 583              		.loc 1 152 9 is_stmt 0 view .LVU111
 584 000a 0120     		movs	r0, #1
 153:Core/Src/syscalls.c **** }
 585              		.loc 1 153 1 view .LVU112
 586 000c 4042     		rsbs	r0, r0, #0
 587              		@ sp needed
 588 000e 10BD     		pop	{r4, pc}
 589              		.cfi_endproc
 590              	.LFE41:
 592              		.section	.text._execve,"ax",%progbits
 593              		.align	1
 594              		.global	_execve
 595              		.syntax unified
 596              		.code	16
 597              		.thumb_func
 599              	_execve:
 600              	.LVL43:
 601              	.LFB42:
 154:Core/Src/syscalls.c **** 
 155:Core/Src/syscalls.c **** int _execve(char *name, char **argv, char **env)
 156:Core/Src/syscalls.c **** {
 602              		.loc 1 156 1 is_stmt 1 view -0
 603              		.cfi_startproc
 604              		@ args = 0, pretend = 0, frame = 0
 605              		@ frame_needed = 0, uses_anonymous_args = 0
 606              		.loc 1 156 1 is_stmt 0 view .LVU114
 607 0000 10B5     		push	{r4, lr}
 608              	.LCFI9:
 609              		.cfi_def_cfa_offset 8
 610              		.cfi_offset 4, -8
 611              		.cfi_offset 14, -4
 157:Core/Src/syscalls.c **** 	errno = ENOMEM;
ARM GAS  C:\Users\flynn\AppData\Local\Temp\ccdj4HfS.s 			page 14


 612              		.loc 1 157 2 is_stmt 1 view .LVU115
 613 0002 FFF7FEFF 		bl	__errno
 614              	.LVL44:
 615              		.loc 1 157 8 is_stmt 0 view .LVU116
 616 0006 0C23     		movs	r3, #12
 617 0008 0360     		str	r3, [r0]
 158:Core/Src/syscalls.c **** 	return -1;
 618              		.loc 1 158 2 is_stmt 1 view .LVU117
 619              		.loc 1 158 9 is_stmt 0 view .LVU118
 620 000a 0120     		movs	r0, #1
 159:Core/Src/syscalls.c **** }
 621              		.loc 1 159 1 view .LVU119
 622 000c 4042     		rsbs	r0, r0, #0
 623              		@ sp needed
 624 000e 10BD     		pop	{r4, pc}
 625              		.cfi_endproc
 626              	.LFE42:
 628              		.global	environ
 629              		.global	__env
 630              		.section	.bss.__env,"aw",%nobits
 631              		.align	2
 634              	__env:
 635 0000 00000000 		.space	4
 636              		.section	.data.environ,"aw"
 637              		.align	2
 640              	environ:
 641 0000 00000000 		.word	__env
 642              		.weak	__io_putchar
 643              		.weak	__io_getchar
 644              		.text
 645              	.Letext0:
 646              		.file 2 "c:\\users\\flynn\\appdata\\roaming\\code\\user\\globalstorage\\bmd.stm32-for-vscode\\@xpa
 647              		.file 3 "c:\\users\\flynn\\appdata\\roaming\\code\\user\\globalstorage\\bmd.stm32-for-vscode\\@xpa
 648              		.file 4 "c:\\users\\flynn\\appdata\\roaming\\code\\user\\globalstorage\\bmd.stm32-for-vscode\\@xpa
 649              		.file 5 "c:\\users\\flynn\\appdata\\roaming\\code\\user\\globalstorage\\bmd.stm32-for-vscode\\@xpa
 650              		.file 6 "c:\\users\\flynn\\appdata\\roaming\\code\\user\\globalstorage\\bmd.stm32-for-vscode\\@xpa
 651              		.file 7 "c:\\users\\flynn\\appdata\\roaming\\code\\user\\globalstorage\\bmd.stm32-for-vscode\\@xpa
 652              		.file 8 "c:\\users\\flynn\\appdata\\roaming\\code\\user\\globalstorage\\bmd.stm32-for-vscode\\@xpa
 653              		.file 9 "c:\\users\\flynn\\appdata\\roaming\\code\\user\\globalstorage\\bmd.stm32-for-vscode\\@xpa
ARM GAS  C:\Users\flynn\AppData\Local\Temp\ccdj4HfS.s 			page 15

